target datalayout = "e-m:e-p270:32:32-p271:32:32-p272:64:64-i64:64-i128:128-f80:128-n8:16:32:64-S128"
target triple = "x86_64-pc-linux-gnu"

%class.QString = type { ptr }
%"class.QtPrivate::RefCount" = type { %class.QBasicAtomicInteger }
%class.QBasicAtomicInteger = type { %"struct.std::atomic" }
%"struct.std::atomic" = type { %"struct.std::__atomic_base" }
%"struct.std::__atomic_base" = type { i32 }
%struct.QArrayData = type { %"class.QtPrivate::RefCount", i32, i32, i64 }
%class.RichParameter = type { ptr, %class.QString, ptr, %class.QString, %class.QString, i8, i8, %class.QString }

@_ZN10QArrayData11shared_nullE = external global [2 x %struct.QArrayData], align 16

; Function Attrs: mustprogress nounwind uwtable
define linkonce_odr void @_ZSt4swapIP15QTypedArrayDataItEENSt9enable_ifIXsr6__and_ISt6__not_ISt15__is_tuple_likeIT_EESt21is_move_constructibleIS6_ESt18is_move_assignableIS6_EEE5valueEvE4typeERS6_SF_(ptr noundef nonnull align 8 dereferenceable(8) %0, ptr noundef nonnull align 8 dereferenceable(8) %1) #0 comdat {
  %3 = alloca ptr, align 8
  %4 = alloca ptr, align 8
  %5 = alloca ptr, align 8
  store ptr %0, ptr %3, align 8
  store ptr %1, ptr %4, align 8
  %6 = load ptr, ptr %3, align 8
  %7 = load ptr, ptr %6, align 8
  store ptr %7, ptr %5, align 8
  %8 = load ptr, ptr %4, align 8
  %9 = load ptr, ptr %8, align 8
  %10 = load ptr, ptr %3, align 8
  store ptr %9, ptr %10, align 8
  %11 = load ptr, ptr %5, align 8
  %12 = load ptr, ptr %4, align 8
  store ptr %11, ptr %12, align 8
  ret void
}

; Function Attrs: mustprogress nounwind uwtable
define linkonce_odr noundef i32 @_ZNSt13__atomic_baseIiEmmEv(ptr noundef nonnull align 4 dereferenceable(4) %0) #0 comdat align 2 {
  %2 = alloca ptr, align 8
  %3 = alloca i32, align 4
  %4 = alloca i32, align 4
  store ptr %0, ptr %2, align 8
  %5 = load ptr, ptr %2, align 8
  %6 = getelementptr inbounds %"struct.std::__atomic_base", ptr %5, i32 0, i32 0
  store i32 1, ptr %3, align 4
  %7 = load i32, ptr %3, align 4
  %8 = atomicrmw sub ptr %6, i32 %7 seq_cst, align 4
  %9 = sub i32 %8, %7
  store i32 %9, ptr %4, align 4
  %10 = load i32, ptr %4, align 4
  ret i32 %10
}

; Function Attrs: mustprogress nounwind uwtable
define linkonce_odr noundef i32 @_ZStanSt12memory_orderSt23__memory_order_modifier(i32 noundef %0, i32 noundef %1) #0 comdat {
  %3 = alloca i32, align 4
  %4 = alloca i32, align 4
  store i32 %0, ptr %3, align 4
  store i32 %1, ptr %4, align 4
  %5 = load i32, ptr %3, align 4
  %6 = load i32, ptr %4, align 4
  %7 = and i32 %5, %6
  ret i32 %7
}

; Function Attrs: mustprogress nounwind uwtable
define linkonce_odr void @_Z5qSwapIP15QTypedArrayDataItEEvRT_S4_(ptr noundef nonnull align 8 dereferenceable(8) %0, ptr noundef nonnull align 8 dereferenceable(8) %1) #0 comdat {
  %3 = alloca ptr, align 8
  %4 = alloca ptr, align 8
  store ptr %0, ptr %3, align 8
  store ptr %1, ptr %4, align 8
  %5 = load ptr, ptr %3, align 8
  %6 = load ptr, ptr %4, align 8
  call void @_ZSt4swapIP15QTypedArrayDataItEENSt9enable_ifIXsr6__and_ISt6__not_ISt15__is_tuple_likeIT_EESt21is_move_constructibleIS6_ESt18is_move_assignableIS6_EEE5valueEvE4typeERS6_SF_(ptr noundef nonnull align 8 dereferenceable(8) %5, ptr noundef nonnull align 8 dereferenceable(8) %6) #5
  ret void
}

; Function Attrs: mustprogress nounwind uwtable
define linkonce_odr noundef zeroext i1 @_ZN10QAtomicOpsIiE5derefIiEEbRSt6atomicIT_E(ptr noundef nonnull align 4 dereferenceable(4) %0) #0 comdat align 2 {
  %2 = alloca ptr, align 8
  store ptr %0, ptr %2, align 8
  %3 = load ptr, ptr %2, align 8
  %4 = call noundef i32 @_ZNSt13__atomic_baseIiEmmEv(ptr noundef nonnull align 4 dereferenceable(4) %3) #5
  %5 = icmp ne i32 %4, 0
  ret i1 %5
}

; Function Attrs: mustprogress nounwind uwtable
define linkonce_odr noundef i32 @_ZN10QAtomicOpsIiE11loadRelaxedIiEET_RKSt6atomicIS2_E(ptr noundef nonnull align 4 dereferenceable(4) %0) #0 comdat align 2 personality ptr @__gxx_personality_v0 {
  %2 = alloca ptr, align 8
  %3 = alloca i32, align 4
  %4 = alloca i32, align 4
  %5 = alloca i32, align 4
  %6 = alloca ptr, align 8
  store ptr %0, ptr %6, align 8
  %7 = load ptr, ptr %6, align 8
  store ptr %7, ptr %2, align 8
  store i32 0, ptr %3, align 4
  %8 = load ptr, ptr %2, align 8
  %9 = load i32, ptr %3, align 4
  %10 = invoke noundef i32 @_ZStanSt12memory_orderSt23__memory_order_modifier(i32 noundef %9, i32 noundef 65535)
          to label %11 unwind label %19

11:                                               ; preds = %1
  store i32 %10, ptr %4, align 4
  %12 = load i32, ptr %3, align 4
  switch i32 %12, label %13 [
    i32 1, label %15
    i32 2, label %15
    i32 5, label %17
  ]

13:                                               ; preds = %11
  %14 = load atomic i32, ptr %8 monotonic, align 4
  store i32 %14, ptr %5, align 4
  br label %22

15:                                               ; preds = %11, %11
  %16 = load atomic i32, ptr %8 acquire, align 4
  store i32 %16, ptr %5, align 4
  br label %22

17:                                               ; preds = %11
  %18 = load atomic i32, ptr %8 seq_cst, align 4
  store i32 %18, ptr %5, align 4
  br label %22

19:                                               ; preds = %1
  %20 = landingpad { ptr, i32 }
          catch ptr null
  %21 = extractvalue { ptr, i32 } %20, 0
  call void @__clang_call_terminate(ptr %21) #13
  unreachable

22:                                               ; preds = %17, %15, %13
  %23 = load i32, ptr %5, align 4
  ret i32 %23
}

; Function Attrs: mustprogress nounwind uwtable
define linkonce_odr void @_ZN7QString4swapERS_(ptr noundef nonnull align 8 dereferenceable(8) %0, ptr noundef nonnull align 8 dereferenceable(8) %1) #0 comdat align 2 {
  %3 = alloca ptr, align 8
  %4 = alloca ptr, align 8
  store ptr %0, ptr %3, align 8
  store ptr %1, ptr %4, align 8
  %5 = load ptr, ptr %3, align 8
  %6 = getelementptr inbounds %class.QString, ptr %5, i32 0, i32 0
  %7 = load ptr, ptr %4, align 8
  %8 = getelementptr inbounds %class.QString, ptr %7, i32 0, i32 0
  call void @_Z5qSwapIP15QTypedArrayDataItEEvRT_S4_(ptr noundef nonnull align 8 dereferenceable(8) %6, ptr noundef nonnull align 8 dereferenceable(8) %8) #5
  ret void
}

; Function Attrs: mustprogress nounwind uwtable
define linkonce_odr noundef zeroext i1 @_ZN19QBasicAtomicIntegerIiE5derefEv(ptr noundef nonnull align 4 dereferenceable(4) %0) #0 comdat align 2 {
  %2 = alloca ptr, align 8
  store ptr %0, ptr %2, align 8
  %3 = load ptr, ptr %2, align 8
  %4 = getelementptr inbounds %class.QBasicAtomicInteger, ptr %3, i32 0, i32 0
  %5 = call noundef zeroext i1 @_ZN10QAtomicOpsIiE5derefIiEEbRSt6atomicIT_E(ptr noundef nonnull align 4 dereferenceable(4) %4) #5
  ret i1 %5
}

; Function Attrs: mustprogress nounwind uwtable
define linkonce_odr noundef i32 @_ZNK19QBasicAtomicIntegerIiE11loadRelaxedEv(ptr noundef nonnull align 4 dereferenceable(4) %0) #0 comdat align 2 {
  %2 = alloca ptr, align 8
  store ptr %0, ptr %2, align 8
  %3 = load ptr, ptr %2, align 8
  %4 = getelementptr inbounds %class.QBasicAtomicInteger, ptr %3, i32 0, i32 0
  %5 = call noundef i32 @_ZN10QAtomicOpsIiE11loadRelaxedIiEET_RKSt6atomicIS2_E(ptr noundef nonnull align 4 dereferenceable(4) %4) #5
  ret i32 %5
}

; Function Attrs: mustprogress nounwind uwtable
define linkonce_odr void @_ZSt4swapIbENSt9enable_ifIXsr6__and_ISt6__not_ISt15__is_tuple_likeIT_EESt21is_move_constructibleIS3_ESt18is_move_assignableIS3_EEE5valueEvE4typeERS3_SC_(ptr noundef nonnull align 1 dereferenceable(1) %0, ptr noundef nonnull align 1 dereferenceable(1) %1) #0 comdat {
  %3 = alloca ptr, align 8
  %4 = alloca ptr, align 8
  %5 = alloca i8, align 1
  store ptr %0, ptr %3, align 8
  store ptr %1, ptr %4, align 8
  %6 = load ptr, ptr %3, align 8
  %7 = load i8, ptr %6, align 1
  %8 = trunc i8 %7 to i1
  %9 = zext i1 %8 to i8
  store i8 %9, ptr %5, align 1
  %10 = load ptr, ptr %4, align 8
  %11 = load i8, ptr %10, align 1
  %12 = trunc i8 %11 to i1
  %13 = load ptr, ptr %3, align 8
  %14 = zext i1 %12 to i8
  store i8 %14, ptr %13, align 1
  %15 = load i8, ptr %5, align 1
  %16 = trunc i8 %15 to i1
  %17 = load ptr, ptr %4, align 8
  %18 = zext i1 %16 to i8
  store i8 %18, ptr %17, align 1
  ret void
}

; Function Attrs: mustprogress nounwind uwtable
define linkonce_odr void @_ZSt4swapIP5ValueENSt9enable_ifIXsr6__and_ISt6__not_ISt15__is_tuple_likeIT_EESt21is_move_constructibleIS5_ESt18is_move_assignableIS5_EEE5valueEvE4typeERS5_SE_(ptr noundef nonnull align 8 dereferenceable(8) %0, ptr noundef nonnull align 8 dereferenceable(8) %1) #0 comdat {
  %3 = alloca ptr, align 8
  %4 = alloca ptr, align 8
  %5 = alloca ptr, align 8
  store ptr %0, ptr %3, align 8
  store ptr %1, ptr %4, align 8
  %6 = load ptr, ptr %3, align 8
  %7 = load ptr, ptr %6, align 8
  store ptr %7, ptr %5, align 8
  %8 = load ptr, ptr %4, align 8
  %9 = load ptr, ptr %8, align 8
  %10 = load ptr, ptr %3, align 8
  store ptr %9, ptr %10, align 8
  %11 = load ptr, ptr %5, align 8
  %12 = load ptr, ptr %4, align 8
  store ptr %11, ptr %12, align 8
  ret void
}

; Function Attrs: mustprogress nounwind uwtable
define linkonce_odr void @_Z4swapR7QStringS0_(ptr noundef nonnull align 8 dereferenceable(8) %0, ptr noundef nonnull align 8 dereferenceable(8) %1) #0 comdat {
  %3 = alloca ptr, align 8
  %4 = alloca ptr, align 8
  store ptr %0, ptr %3, align 8
  store ptr %1, ptr %4, align 8
  %5 = load ptr, ptr %3, align 8
  %6 = load ptr, ptr %4, align 8
  call void @_ZN7QString4swapERS_(ptr noundef nonnull align 8 dereferenceable(8) %5, ptr noundef nonnull align 8 dereferenceable(8) %6) #5
  ret void
}

; Function Attrs: mustprogress nounwind uwtable
define linkonce_odr noundef ptr @_ZN10QArrayData10sharedNullEv() #0 comdat align 2 {
  ret ptr @_ZN10QArrayData11shared_nullE
}

; Function Attrs: noreturn nounwind uwtable
define linkonce_odr hidden void @__clang_call_terminate(ptr noundef %0) #9 comdat {
  %2 = call ptr @__cxa_begin_catch(ptr %0) #5
  call void @_ZSt9terminatev() #13
  unreachable
}

; Function Attrs: mustprogress nounwind uwtable
define linkonce_odr void @_ZN15QTypedArrayDataItE10deallocateEP10QArrayData(ptr noundef %0) #0 comdat align 2 {
  %2 = alloca ptr, align 8
  store ptr %0, ptr %2, align 8
  %3 = load ptr, ptr %2, align 8
  call void @_ZN10QArrayData10deallocateEPS_mm(ptr noundef %3, i64 noundef 2, i64 noundef 8) #5
  ret void
}

; Function Attrs: mustprogress nounwind uwtable
define linkonce_odr noundef zeroext i1 @_ZN9QtPrivate8RefCount5derefEv(ptr noundef nonnull align 4 dereferenceable(4) %0) #0 comdat align 2 {
  %2 = alloca i1, align 1
  %3 = alloca ptr, align 8
  %4 = alloca i32, align 4
  store ptr %0, ptr %3, align 8
  %5 = load ptr, ptr %3, align 8
  %6 = getelementptr inbounds %"class.QtPrivate::RefCount", ptr %5, i32 0, i32 0
  %7 = call noundef i32 @_ZNK19QBasicAtomicIntegerIiE11loadRelaxedEv(ptr noundef nonnull align 4 dereferenceable(4) %6) #5
  store i32 %7, ptr %4, align 4
  %8 = load i32, ptr %4, align 4
  %9 = icmp eq i32 %8, 0
  br i1 %9, label %10, label %11

10:                                               ; preds = %1
  store i1 false, ptr %2, align 1
  br label %18

11:                                               ; preds = %1
  %12 = load i32, ptr %4, align 4
  %13 = icmp eq i32 %12, -1
  br i1 %13, label %14, label %15

14:                                               ; preds = %11
  store i1 true, ptr %2, align 1
  br label %18

15:                                               ; preds = %11
  %16 = getelementptr inbounds %"class.QtPrivate::RefCount", ptr %5, i32 0, i32 0
  %17 = call noundef zeroext i1 @_ZN19QBasicAtomicIntegerIiE5derefEv(ptr noundef nonnull align 4 dereferenceable(4) %16) #5
  store i1 %17, ptr %2, align 1
  br label %18

18:                                               ; preds = %15, %14, %10
  %19 = load i1, ptr %2, align 1
  ret i1 %19
}

; Function Attrs: mustprogress nounwind uwtable
define void @_Z4swapR13RichParameterS0_(ptr noundef nonnull align 8 dereferenceable(56) %0, ptr noundef nonnull align 8 dereferenceable(56) %1) #0 {
  %3 = alloca ptr, align 8
  %4 = alloca ptr, align 8
  store ptr %0, ptr %3, align 8
  store ptr %1, ptr %4, align 8
  %5 = load ptr, ptr %3, align 8
  %6 = getelementptr inbounds %class.RichParameter, ptr %5, i32 0, i32 1
  %7 = load ptr, ptr %4, align 8
  %8 = getelementptr inbounds %class.RichParameter, ptr %7, i32 0, i32 1
  call void @_Z4swapR7QStringS0_(ptr noundef nonnull align 8 dereferenceable(8) %6, ptr noundef nonnull align 8 dereferenceable(8) %8) #5
  %9 = load ptr, ptr %3, align 8
  %10 = getelementptr inbounds %class.RichParameter, ptr %9, i32 0, i32 2
  %11 = load ptr, ptr %4, align 8
  %12 = getelementptr inbounds %class.RichParameter, ptr %11, i32 0, i32 2
  call void @_ZSt4swapIP5ValueENSt9enable_ifIXsr6__and_ISt6__not_ISt15__is_tuple_likeIT_EESt21is_move_constructibleIS5_ESt18is_move_assignableIS5_EEE5valueEvE4typeERS5_SE_(ptr noundef nonnull align 8 dereferenceable(8) %10, ptr noundef nonnull align 8 dereferenceable(8) %12) #5
  %13 = load ptr, ptr %3, align 8
  %14 = getelementptr inbounds %class.RichParameter, ptr %13, i32 0, i32 3
  %15 = load ptr, ptr %4, align 8
  %16 = getelementptr inbounds %class.RichParameter, ptr %15, i32 0, i32 3
  call void @_Z4swapR7QStringS0_(ptr noundef nonnull align 8 dereferenceable(8) %14, ptr noundef nonnull align 8 dereferenceable(8) %16) #5
  %17 = load ptr, ptr %3, align 8
  %18 = getelementptr inbounds %class.RichParameter, ptr %17, i32 0, i32 4
  %19 = load ptr, ptr %4, align 8
  %20 = getelementptr inbounds %class.RichParameter, ptr %19, i32 0, i32 4
  call void @_Z4swapR7QStringS0_(ptr noundef nonnull align 8 dereferenceable(8) %18, ptr noundef nonnull align 8 dereferenceable(8) %20) #5
  %21 = load ptr, ptr %3, align 8
  %22 = getelementptr inbounds %class.RichParameter, ptr %21, i32 0, i32 5
  %23 = load ptr, ptr %4, align 8
  %24 = getelementptr inbounds %class.RichParameter, ptr %23, i32 0, i32 5
  call void @_ZSt4swapIbENSt9enable_ifIXsr6__and_ISt6__not_ISt15__is_tuple_likeIT_EESt21is_move_constructibleIS3_ESt18is_move_assignableIS3_EEE5valueEvE4typeERS3_SC_(ptr noundef nonnull align 1 dereferenceable(1) %22, ptr noundef nonnull align 1 dereferenceable(1) %24) #5
  %25 = load ptr, ptr %3, align 8
  %26 = getelementptr inbounds %class.RichParameter, ptr %25, i32 0, i32 6
  %27 = load ptr, ptr %4, align 8
  %28 = getelementptr inbounds %class.RichParameter, ptr %27, i32 0, i32 6
  call void @_ZSt4swapIbENSt9enable_ifIXsr6__and_ISt6__not_ISt15__is_tuple_likeIT_EESt21is_move_constructibleIS3_ESt18is_move_assignableIS3_EEE5valueEvE4typeERS3_SC_(ptr noundef nonnull align 1 dereferenceable(1) %26, ptr noundef nonnull align 1 dereferenceable(1) %28) #5
  %29 = load ptr, ptr %3, align 8
  %30 = getelementptr inbounds %class.RichParameter, ptr %29, i32 0, i32 7
  %31 = load ptr, ptr %4, align 8
  %32 = getelementptr inbounds %class.RichParameter, ptr %31, i32 0, i32 7
  call void @_Z4swapR7QStringS0_(ptr noundef nonnull align 8 dereferenceable(8) %30, ptr noundef nonnull align 8 dereferenceable(8) %32) #5
  ret void
}

; Function Attrs: mustprogress nounwind uwtable
define linkonce_odr noundef ptr @_ZN15QTypedArrayDataItE10sharedNullEv() #0 comdat align 2 {
  %1 = call noundef ptr @_ZN10QArrayData10sharedNullEv() #5
  ret ptr %1
}

; Function Attrs: mustprogress nounwind uwtable
define linkonce_odr void @_ZN7QStringD2Ev(ptr noundef nonnull align 8 dereferenceable(8) %0) unnamed_addr #0 comdat align 2 personality ptr @__gxx_personality_v0 {
  %2 = alloca ptr, align 8
  store ptr %0, ptr %2, align 8
  %3 = load ptr, ptr %2, align 8
  %4 = getelementptr inbounds %class.QString, ptr %3, i32 0, i32 0
  %5 = load ptr, ptr %4, align 8
  %6 = getelementptr inbounds %struct.QArrayData, ptr %5, i32 0, i32 0
  %7 = call noundef zeroext i1 @_ZN9QtPrivate8RefCount5derefEv(ptr noundef nonnull align 4 dereferenceable(4) %6) #5
  br i1 %7, label %12, label %8

8:                                                ; preds = %1
  %9 = getelementptr inbounds %class.QString, ptr %3, i32 0, i32 0
  %10 = load ptr, ptr %9, align 8
  invoke void @_ZN15QTypedArrayDataItE10deallocateEP10QArrayData(ptr noundef %10)
          to label %11 unwind label %13

11:                                               ; preds = %8
  br label %12

12:                                               ; preds = %11, %1
  ret void

13:                                               ; preds = %8
  %14 = landingpad { ptr, i32 }
          catch ptr null
  %15 = extractvalue { ptr, i32 } %14, 0
  call void @__clang_call_terminate(ptr %15) #13
  unreachable
}

; Function Attrs: mustprogress uwtable
define void @_ZN13RichParameter4swapERS_(ptr noundef nonnull align 8 dereferenceable(56) %0, ptr noundef nonnull align 8 dereferenceable(56) %1) #1 align 2 {
  %3 = alloca ptr, align 8
  %4 = alloca ptr, align 8
  store ptr %0, ptr %3, align 8
  store ptr %1, ptr %4, align 8
  %5 = load ptr, ptr %3, align 8
  %6 = load ptr, ptr %4, align 8
  call void @_Z4swapR13RichParameterS0_(ptr noundef nonnull align 8 dereferenceable(56) %5, ptr noundef nonnull align 8 dereferenceable(56) %6)
  ret void
}

; Function Attrs: mustprogress nounwind uwtable
define linkonce_odr void @_ZN7QStringC2Ev(ptr noundef nonnull align 8 dereferenceable(8) %0) unnamed_addr #0 comdat align 2 {
  %2 = alloca ptr, align 8
  store ptr %0, ptr %2, align 8
  %3 = load ptr, ptr %2, align 8
  %4 = getelementptr inbounds %class.QString, ptr %3, i32 0, i32 0
  %5 = call noundef ptr @_ZN15QTypedArrayDataItE10sharedNullEv() #5
  store ptr %5, ptr %4, align 8
  ret void
}

; Function Attrs: mustprogress uwtable
define void @_ZN13RichParameterC2EOS_(ptr noundef nonnull align 8 dereferenceable(56) %0, ptr noundef nonnull align 8 dereferenceable(56) %1) unnamed_addr #1 align 2 personality ptr @__gxx_personality_v0 {
  %3 = alloca ptr, align 8
  %4 = alloca ptr, align 8
  %5 = alloca ptr, align 8
  %6 = alloca i32, align 4
  store ptr %0, ptr %3, align 8
  store ptr %1, ptr %4, align 8
  %7 = load ptr, ptr %3, align 8
  store ptr getelementptr inbounds ({ [8 x ptr] }, ptr @_ZTV13RichParameter, i32 0, i32 0, i32 2), ptr %7, align 8
  %8 = getelementptr inbounds %class.RichParameter, ptr %7, i32 0, i32 1
  call void @_ZN7QStringC2Ev(ptr noundef nonnull align 8 dereferenceable(8) %8) #5
  %9 = getelementptr inbounds %class.RichParameter, ptr %7, i32 0, i32 3
  call void @_ZN7QStringC2Ev(ptr noundef nonnull align 8 dereferenceable(8) %9) #5
  %10 = getelementptr inbounds %class.RichParameter, ptr %7, i32 0, i32 4
  call void @_ZN7QStringC2Ev(ptr noundef nonnull align 8 dereferenceable(8) %10) #5
  %11 = getelementptr inbounds %class.RichParameter, ptr %7, i32 0, i32 7
  call void @_ZN7QStringC2Ev(ptr noundef nonnull align 8 dereferenceable(8) %11) #5
  %12 = load ptr, ptr %4, align 8
  invoke void @_ZN13RichParameter4swapERS_(ptr noundef nonnull align 8 dereferenceable(56) %7, ptr noundef nonnull align 8 dereferenceable(56) %12)
          to label %13 unwind label %14

13:                                               ; preds = %2
  ret void

14:                                               ; preds = %2
  %15 = landingpad { ptr, i32 }
          cleanup
  %16 = extractvalue { ptr, i32 } %15, 0
  store ptr %16, ptr %5, align 8
  %17 = extractvalue { ptr, i32 } %15, 1
  store i32 %17, ptr %6, align 4
  call void @_ZN7QStringD2Ev(ptr noundef nonnull align 8 dereferenceable(8) %11) #5
  call void @_ZN7QStringD2Ev(ptr noundef nonnull align 8 dereferenceable(8) %10) #5
  call void @_ZN7QStringD2Ev(ptr noundef nonnull align 8 dereferenceable(8) %9) #5
  call void @_ZN7QStringD2Ev(ptr noundef nonnull align 8 dereferenceable(8) %8) #5
  br label %18

18:                                               ; preds = %14
  %19 = load ptr, ptr %5, align 8
  %20 = load i32, ptr %6, align 4
  %21 = insertvalue { ptr, i32 } poison, ptr %19, 0
  %22 = insertvalue { ptr, i32 } %21, i32 %20, 1
  resume { ptr, i32 } %22
}