; Function Attrs: mustprogress nofree norecurse nosync nounwind willreturn memory(argmem: readwrite) uwtable
define void @_ZN13RichParameterC2EOS_(ptr nocapture noundef nonnull align 8 dereferenceable(56) %0, ptr nocapture noundef nonnull align 8 dereferenceable(56) %1) unnamed_addr #14 align 2 personality ptr @__gxx_personality_v0 {
  store ptr getelementptr inbounds ({ [8 x ptr] }, ptr @_ZTV13RichParameter, i64 0, i32 0, i64 2), ptr %0, align 8
  %3 = getelementptr inbounds i8, ptr %0, i64 8
  store ptr @_ZN10QArrayData11shared_nullE, ptr %3, align 8
  %4 = getelementptr inbounds i8, ptr %0, i64 24
  store ptr @_ZN10QArrayData11shared_nullE, ptr %4, align 8
  %5 = getelementptr inbounds i8, ptr %0, i64 32
  store ptr @_ZN10QArrayData11shared_nullE, ptr %5, align 8
  %6 = getelementptr inbounds i8, ptr %0, i64 48
  store ptr @_ZN10QArrayData11shared_nullE, ptr %6, align 8
  %7 = getelementptr inbounds i8, ptr %1, i64 8
  %8 = load ptr, ptr %7, align 8
  store ptr %8, ptr %3, align 8
  store ptr @_ZN10QArrayData11shared_nullE, ptr %7, align 8
  %9 = getelementptr inbounds i8, ptr %0, i64 16
  %10 = getelementptr inbounds i8, ptr %1, i64 16
  %11 = load ptr, ptr %9, align 8
  %12 = load ptr, ptr %10, align 8
  store ptr %12, ptr %9, align 8
  store ptr %11, ptr %10, align 8
  %13 = getelementptr inbounds i8, ptr %1, i64 24
  %14 = load ptr, ptr %4, align 8
  %15 = load ptr, ptr %13, align 8
  store ptr %15, ptr %4, align 8
  store ptr %14, ptr %13, align 8
  %16 = getelementptr inbounds i8, ptr %1, i64 32
  %17 = load ptr, ptr %5, align 8
  %18 = load ptr, ptr %16, align 8
  store ptr %18, ptr %5, align 8
  store ptr %17, ptr %16, align 8
  %19 = getelementptr inbounds i8, ptr %0, i64 40
  %20 = getelementptr inbounds i8, ptr %1, i64 40
  %21 = load i8, ptr %19, align 8
  %22 = and i8 %21, 1
  %23 = load i8, ptr %20, align 8
  %24 = and i8 %23, 1
  store i8 %24, ptr %19, align 8
  store i8 %22, ptr %20, align 8
  %25 = getelementptr inbounds i8, ptr %0, i64 41
  %26 = getelementptr inbounds i8, ptr %1, i64 41
  %27 = load i8, ptr %25, align 1
  %28 = and i8 %27, 1
  %29 = load i8, ptr %26, align 1
  %30 = and i8 %29, 1
  store i8 %30, ptr %25, align 1
  store i8 %28, ptr %26, align 1
  %31 = getelementptr inbounds i8, ptr %1, i64 48
  %32 = load ptr, ptr %6, align 8
  %33 = load ptr, ptr %31, align 8
  store ptr %33, ptr %6, align 8
  store ptr %32, ptr %31, align 8
  ret void
}